Certificate:
    Data:
        Version: 3 (0x2)
        Serial Number: 54 (0x36)
    Signature Algorithm: sha1WithRSAEncryption
        Issuer: C=IT, ST=Italia, L=Grosseto, O=Praisenet, OU=Praisenet Paranoia, CN=praisenet.darktech.org/emailAddress=postmaster@praisenet.darktech.org
        Validity
            Not Before: Sep  4 10:14:27 2015 GMT
            Not After : Sep  3 10:14:27 2016 GMT
        Subject: C=IT, ST=Italia, L=Grosseto, O=Praisenet, OU=Praisenet Paranoia, CN=localhost/emailAddress=postmaster@praisenet.darktech.org
        Subject Public Key Info:
            Public Key Algorithm: rsaEncryption
                Public-Key: (2048 bit)
                Modulus:
                    00:bc:11:64:b0:76:22:ce:33:fa:5a:59:82:23:12:
                    87:91:c6:ac:cc:d7:03:66:7f:08:f5:6f:00:c1:f8:
                    ac:43:31:c6:27:d9:a4:c1:69:2c:e4:6c:b8:4b:0e:
                    24:5b:4f:20:66:c5:30:5e:e8:05:28:97:ed:ef:03:
                    ce:85:d2:bf:3d:38:fb:0c:e6:0c:9c:13:8b:ea:3d:
                    9e:e2:77:ba:ec:71:d6:c3:41:83:31:89:15:b8:dd:
                    49:87:93:e9:e0:39:0f:9a:2d:88:71:57:05:12:68:
                    29:e9:39:6c:ea:ff:21:8c:12:a0:74:c8:7e:c5:57:
                    72:fb:72:ea:fc:01:5c:96:16:4a:6b:a8:28:b1:24:
                    ea:c3:43:c6:4f:c5:ad:21:f8:26:cb:22:99:29:18:
                    e8:1c:39:86:55:eb:18:fd:17:f2:c8:0e:fe:af:c9:
                    71:b5:ff:2a:8d:a8:ab:21:93:b2:2e:5c:41:34:11:
                    07:62:aa:c9:94:c1:9f:4b:bb:57:68:8a:89:69:0d:
                    36:70:ad:a8:30:84:8f:d1:18:15:1e:09:a6:2a:1c:
                    e0:d5:73:1b:0a:2f:e4:50:0f:b6:7a:71:ad:3c:3c:
                    5b:e0:57:05:78:27:ca:1c:38:da:e6:02:74:3f:5c:
                    95:8b:76:f6:2a:ba:2f:b6:33:7f:82:de:17:e5:3a:
                    c8:29
                Exponent: 65537 (0x10001)
        X509v3 extensions:
            X509v3 Basic Constraints: 
                CA:FALSE
            Netscape Cert Type: 
                SSL Server
            Netscape Comment: 
                Praisenet Certificate
            X509v3 Subject Key Identifier: 
                47:B5:CD:3D:F7:A7:B5:89:64:B4:FC:94:FF:6E:4D:99:D5:F3:B7:43
            X509v3 Authority Key Identifier: 
                keyid:13:AF:DF:D1:C4:8D:75:A0:11:2B:BB:A3:9F:F1:36:AB:E6:E0:01:D6
                DirName:/C=IT/ST=Italia/L=Grosseto/O=Praisenet/OU=Praisenet Paranoia/CN=praisenet.darktech.org/emailAddress=postmaster@praisenet.darktech.org
                serial:A4:6D:8E:90:75:D3:9D:BC

    Signature Algorithm: sha1WithRSAEncryption
         89:6b:76:fc:44:14:77:54:9c:d3:41:29:89:c7:85:d3:75:d3:
         7c:7d:7a:f1:c0:f4:d7:ef:1f:57:b6:b9:89:ae:a0:ed:c5:17:
         69:63:5b:75:73:39:bc:0c:73:fe:e2:18:e2:af:a2:3b:6b:ac:
         e1:1f:b5:fb:0a:a0:62:13:0d:96:05:93:6f:bd:8f:a7:67:11:
         1c:6b:a8:a8:0c:63:c5:90:5c:ea:97:ad:67:e8:c5:4f:8c:67:
         b3:31:bc:4b:8a:d4:1f:4c:0a:9e:af:41:e9:cc:47:fc:42:3c:
         f5:8e:ee:e9:4f:53:02:5c:0f:79:5c:80:dd:3d:1f:5b:72:ba:
         7d:ee:a0:35:00:66:ef:75:0b:32:6b:78:84:67:76:c0:91:51:
         31:dd:dc:cb:85:cf:5b:09:2f:34:6f:0b:af:3e:be:61:67:0a:
         e2:61:e6:71:26:d4:1f:b5:fc:55:bc:be:df:13:e5:f0:36:c1:
         6e:c4:72:73:50:c8:75:d3:5e:f6:99:cf:45:1b:31:b9:e7:ec:
         b6:97:a8:47:66:07:b4:9f:12:83:44:e6:77:d6:38:d9:6f:36:
         7c:fb:41:8e:01:1a:ee:f9:33:d5:37:4f:96:03:91:fc:1c:25:
         e1:55:9c:34:19:64:f4:c9:d4:10:ba:30:ea:8e:dc:f1:ce:1e:
         d7:73:5e:2f
-----BEGIN CERTIFICATE-----
MIIFMDCCBBigAwIBAgIBNjANBgkqhkiG9w0BAQUFADCBtTELMAkGA1UEBhMCSVQx
DzANBgNVBAgTBkl0YWxpYTERMA8GA1UEBxMIR3Jvc3NldG8xEjAQBgNVBAoTCVBy
YWlzZW5ldDEbMBkGA1UECxMSUHJhaXNlbmV0IFBhcmFub2lhMR8wHQYDVQQDExZw
cmFpc2VuZXQuZGFya3RlY2gub3JnMTAwLgYJKoZIhvcNAQkBFiFwb3N0bWFzdGVy
QHByYWlzZW5ldC5kYXJrdGVjaC5vcmcwHhcNMTUwOTA0MTAxNDI3WhcNMTYwOTAz
MTAxNDI3WjCBqDELMAkGA1UEBhMCSVQxDzANBgNVBAgTBkl0YWxpYTERMA8GA1UE
BxMIR3Jvc3NldG8xEjAQBgNVBAoTCVByYWlzZW5ldDEbMBkGA1UECxMSUHJhaXNl
bmV0IFBhcmFub2lhMRIwEAYDVQQDEwlsb2NhbGhvc3QxMDAuBgkqhkiG9w0BCQEW
IXBvc3RtYXN0ZXJAcHJhaXNlbmV0LmRhcmt0ZWNoLm9yZzCCASIwDQYJKoZIhvcN
AQEBBQADggEPADCCAQoCggEBALwRZLB2Is4z+lpZgiMSh5HGrMzXA2Z/CPVvAMH4
rEMxxifZpMFpLORsuEsOJFtPIGbFMF7oBSiX7e8DzoXSvz04+wzmDJwTi+o9nuJ3
uuxx1sNBgzGJFbjdSYeT6eA5D5otiHFXBRJoKek5bOr/IYwSoHTIfsVXcvty6vwB
XJYWSmuoKLEk6sNDxk/FrSH4JssimSkY6Bw5hlXrGP0X8sgO/q/JcbX/Ko2oqyGT
si5cQTQRB2KqyZTBn0u7V2iKiWkNNnCtqDCEj9EYFR4Jpioc4NVzGwov5FAPtnpx
rTw8W+BXBXgnyhw42uYCdD9clYt29iq6L7Yzf4LeF+U6yCkCAwEAAaOCAVQwggFQ
MAkGA1UdEwQCMAAwEQYJYIZIAYb4QgEBBAQDAgZAMCQGCWCGSAGG+EIBDQQXFhVQ
cmFpc2VuZXQgQ2VydGlmaWNhdGUwHQYDVR0OBBYEFEe1zT33p7WJZLT8lP9uTZnV
87dDMIHqBgNVHSMEgeIwgd+AFBOv39HEjXWgESu7o5/xNqvm4AHWoYG7pIG4MIG1
MQswCQYDVQQGEwJJVDEPMA0GA1UECBMGSXRhbGlhMREwDwYDVQQHEwhHcm9zc2V0
bzESMBAGA1UEChMJUHJhaXNlbmV0MRswGQYDVQQLExJQcmFpc2VuZXQgUGFyYW5v
aWExHzAdBgNVBAMTFnByYWlzZW5ldC5kYXJrdGVjaC5vcmcxMDAuBgkqhkiG9w0B
CQEWIXBvc3RtYXN0ZXJAcHJhaXNlbmV0LmRhcmt0ZWNoLm9yZ4IJAKRtjpB10528
MA0GCSqGSIb3DQEBBQUAA4IBAQCJa3b8RBR3VJzTQSmJx4XTddN8fXrxwPTX7x9X
trmJrqDtxRdpY1t1czm8DHP+4hjir6I7a6zhH7X7CqBiEw2WBZNvvY+nZxEca6io
DGPFkFzql61n6MVPjGezMbxLitQfTAqer0HpzEf8Qjz1ju7pT1MCXA95XIDdPR9b
crp97qA1AGbvdQsya3iEZ3bAkVEx3dzLhc9bCS80bwuvPr5hZwriYeZxJtQftfxV
vL7fE+XwNsFuxHJzUMh10172mc9FGzG55+y2l6hHZge0nxKDROZ31jjZbzZ8+0GO
ARru+TPVN0+WA5H8HCXhVZw0GWT0ydQQujDqjtzxzh7Xc14v
-----END CERTIFICATE-----
