Certificate:
    Data:
        Version: 3 (0x2)
        Serial Number: 55 (0x37)
    Signature Algorithm: sha1WithRSAEncryption
        Issuer: C=IT, ST=Italia, L=Grosseto, O=Praisenet, OU=Praisenet Paranoia, CN=praisenet.darktech.org/emailAddress=postmaster@praisenet.darktech.org
        Validity
            Not Before: Feb 22 13:39:48 2016 GMT
            Not After : Feb 21 13:39:48 2017 GMT
        Subject: C=IT, ST=Italia, L=Grosseto, O=Praisenet, OU=Praisenet Paranoia, CN=tcynny.com/emailAddress=postmaster@cynny.com
        Subject Public Key Info:
            Public Key Algorithm: rsaEncryption
                Public-Key: (2048 bit)
                Modulus:
                    00:94:bf:03:6d:9e:71:3d:86:e7:e7:da:63:9e:21:
                    5c:0a:c2:83:f1:fc:07:71:4d:01:0a:8e:d5:bb:a8:
                    fa:f8:9e:6c:1c:4d:fd:55:4b:bb:c9:79:86:21:fa:
                    7a:29:d3:59:e9:fe:0b:8f:08:64:c8:40:40:fc:88:
                    8d:a2:39:38:fa:37:ea:0d:de:d1:39:37:16:ca:4c:
                    47:83:fb:04:a0:5c:2f:a5:b0:86:2c:fc:79:a6:ef:
                    d9:74:d5:47:af:23:4c:89:0a:2c:3c:be:02:e8:ce:
                    f6:93:a5:1b:97:7f:01:83:4c:18:a8:d3:77:bc:5e:
                    f4:a5:d0:b2:6e:f9:46:50:fc:b2:96:d0:f2:f3:51:
                    44:1b:6f:0b:19:a2:05:25:51:5b:90:bf:39:b3:c8:
                    96:3e:25:87:a8:95:f0:f2:a6:84:b3:1b:d5:d7:20:
                    56:34:26:91:85:88:8d:b0:8c:15:e3:1f:15:b2:66:
                    f9:5c:8b:ff:9b:20:10:93:35:ec:aa:e0:da:f7:3c:
                    cd:81:d4:95:2f:a8:fe:7f:93:44:10:42:95:0b:38:
                    b2:55:e5:2c:6a:6b:b0:a2:9f:04:28:14:a7:7a:62:
                    2f:07:33:a3:97:55:a7:69:36:54:32:b0:fd:81:76:
                    53:79:af:2a:3b:d0:c6:45:e3:bd:db:f2:6a:f0:f8:
                    be:13
                Exponent: 65537 (0x10001)
        X509v3 extensions:
            X509v3 Basic Constraints: 
                CA:FALSE
            Netscape Cert Type: 
                SSL Server
            Netscape Comment: 
                Praisenet Certificate
            X509v3 Subject Key Identifier: 
                94:F0:E6:5D:BE:85:1D:BE:7B:31:A0:4A:1C:1F:76:99:E0:10:54:45
            X509v3 Authority Key Identifier: 
                keyid:13:AF:DF:D1:C4:8D:75:A0:11:2B:BB:A3:9F:F1:36:AB:E6:E0:01:D6
                DirName:/C=IT/ST=Italia/L=Grosseto/O=Praisenet/OU=Praisenet Paranoia/CN=praisenet.darktech.org/emailAddress=postmaster@praisenet.darktech.org
                serial:A4:6D:8E:90:75:D3:9D:BC

    Signature Algorithm: sha1WithRSAEncryption
         3b:8c:f2:de:33:52:2f:7f:60:c6:fe:32:7b:fd:b4:12:84:87:
         65:18:f4:25:e5:c0:57:65:95:3d:40:83:39:76:9a:a2:76:ae:
         49:8e:1d:76:b4:6f:80:b5:f2:da:42:c6:e5:e3:8d:04:fb:87:
         c4:78:fd:23:61:ae:cb:b8:7a:3b:f1:68:c2:5e:02:08:49:d8:
         6d:f0:86:d0:d6:65:55:2d:c2:72:e6:16:4b:c2:e0:6e:f6:9e:
         32:40:03:99:f5:fd:4f:2e:95:80:44:f4:02:fa:f7:5f:04:d8:
         4c:a9:86:ef:14:c7:f0:45:44:35:e8:20:73:6b:92:b5:00:ce:
         8d:87:10:70:34:53:29:78:de:7d:07:ff:9c:dc:bd:1e:a2:f7:
         a9:9f:84:ac:00:25:7b:7e:49:b9:88:5d:c8:a7:f2:cc:a9:d0:
         2e:b2:19:b3:c4:3a:b1:8b:01:65:e1:e1:da:b0:a9:86:81:be:
         a1:6c:c3:54:79:7b:84:bb:f5:c3:04:60:52:f1:38:54:80:af:
         b6:ba:cd:d0:83:e5:8a:c9:9e:97:df:fa:97:9c:b2:85:32:f0:
         aa:54:52:3a:b1:5d:4c:7a:f0:d6:22:ca:ec:dd:f7:e0:bc:07:
         1f:88:40:73:ea:ce:e1:4e:20:c7:e4:cd:06:2d:ff:ae:d1:05:
         6c:e4:92:42
-----BEGIN CERTIFICATE-----
MIIFJDCCBAygAwIBAgIBNzANBgkqhkiG9w0BAQUFADCBtTELMAkGA1UEBhMCSVQx
DzANBgNVBAgTBkl0YWxpYTERMA8GA1UEBxMIR3Jvc3NldG8xEjAQBgNVBAoTCVBy
YWlzZW5ldDEbMBkGA1UECxMSUHJhaXNlbmV0IFBhcmFub2lhMR8wHQYDVQQDExZw
cmFpc2VuZXQuZGFya3RlY2gub3JnMTAwLgYJKoZIhvcNAQkBFiFwb3N0bWFzdGVy
QHByYWlzZW5ldC5kYXJrdGVjaC5vcmcwHhcNMTYwMjIyMTMzOTQ4WhcNMTcwMjIx
MTMzOTQ4WjCBnDELMAkGA1UEBhMCSVQxDzANBgNVBAgTBkl0YWxpYTERMA8GA1UE
BxMIR3Jvc3NldG8xEjAQBgNVBAoTCVByYWlzZW5ldDEbMBkGA1UECxMSUHJhaXNl
bmV0IFBhcmFub2lhMRMwEQYDVQQDEwp0Y3lubnkuY29tMSMwIQYJKoZIhvcNAQkB
FhRwb3N0bWFzdGVyQGN5bm55LmNvbTCCASIwDQYJKoZIhvcNAQEBBQADggEPADCC
AQoCggEBAJS/A22ecT2G5+faY54hXArCg/H8B3FNAQqO1buo+viebBxN/VVLu8l5
hiH6einTWen+C48IZMhAQPyIjaI5OPo36g3e0Tk3FspMR4P7BKBcL6Wwhiz8eabv
2XTVR68jTIkKLDy+AujO9pOlG5d/AYNMGKjTd7xe9KXQsm75RlD8spbQ8vNRRBtv
CxmiBSVRW5C/ObPIlj4lh6iV8PKmhLMb1dcgVjQmkYWIjbCMFeMfFbJm+VyL/5sg
EJM17Krg2vc8zYHUlS+o/n+TRBBClQs4slXlLGprsKKfBCgUp3piLwczo5dVp2k2
VDKw/YF2U3mvKjvQxkXjvdvyavD4vhMCAwEAAaOCAVQwggFQMAkGA1UdEwQCMAAw
EQYJYIZIAYb4QgEBBAQDAgZAMCQGCWCGSAGG+EIBDQQXFhVQcmFpc2VuZXQgQ2Vy
dGlmaWNhdGUwHQYDVR0OBBYEFJTw5l2+hR2+ezGgShwfdpngEFRFMIHqBgNVHSME
geIwgd+AFBOv39HEjXWgESu7o5/xNqvm4AHWoYG7pIG4MIG1MQswCQYDVQQGEwJJ
VDEPMA0GA1UECBMGSXRhbGlhMREwDwYDVQQHEwhHcm9zc2V0bzESMBAGA1UEChMJ
UHJhaXNlbmV0MRswGQYDVQQLExJQcmFpc2VuZXQgUGFyYW5vaWExHzAdBgNVBAMT
FnByYWlzZW5ldC5kYXJrdGVjaC5vcmcxMDAuBgkqhkiG9w0BCQEWIXBvc3RtYXN0
ZXJAcHJhaXNlbmV0LmRhcmt0ZWNoLm9yZ4IJAKRtjpB10528MA0GCSqGSIb3DQEB
BQUAA4IBAQA7jPLeM1Ivf2DG/jJ7/bQShIdlGPQl5cBXZZU9QIM5dpqidq5Jjh12
tG+AtfLaQsbl440E+4fEeP0jYa7LuHo78WjCXgIISdht8IbQ1mVVLcJy5hZLwuBu
9p4yQAOZ9f1PLpWARPQC+vdfBNhMqYbvFMfwRUQ16CBza5K1AM6NhxBwNFMpeN59
B/+c3L0eovepn4SsACV7fkm5iF3Ip/LMqdAushmzxDqxiwFl4eHasKmGgb6hbMNU
eXuEu/XDBGBS8ThUgK+2us3Qg+WKyZ6X3/qXnLKFMvCqVFI6sV1MevDWIsrs3ffg
vAcfiEBz6s7hTiDH5M0GLf+u0QVs5JJC
-----END CERTIFICATE-----
