Certificate:
    Data:
        Version: 3 (0x2)
        Serial Number: 56 (0x38)
    Signature Algorithm: sha1WithRSAEncryption
        Issuer: C=IT, ST=Italia, L=Grosseto, O=Praisenet, OU=Praisenet Paranoia, CN=praisenet.darktech.org/emailAddress=postmaster@praisenet.darktech.org
        Validity
            Not Before: Feb 22 13:41:34 2016 GMT
            Not After : Feb 21 13:41:34 2017 GMT
        Subject: C=IT, ST=Italia, L=Grosseto, O=Praisenet, OU=Praisenet Paranoia, CN=errors.tcynny.com/emailAddress=postmaster@praisenet.darktech.org
        Subject Public Key Info:
            Public Key Algorithm: rsaEncryption
                Public-Key: (2048 bit)
                Modulus:
                    00:a4:c0:10:b5:39:2e:f6:59:b3:e5:a4:4d:a3:d6:
                    bf:09:e9:03:cb:39:12:f1:eb:79:10:5d:aa:f1:e4:
                    13:2c:7f:fe:d5:a7:3e:a0:77:60:f5:7b:65:82:dd:
                    fd:e7:54:9a:70:23:b2:55:ca:32:40:d1:1e:9a:51:
                    0c:0d:2e:7e:50:4c:6a:4a:e9:a9:92:38:3c:5f:25:
                    5d:65:ff:8e:27:b8:07:f9:a2:8b:17:77:c4:03:97:
                    6f:51:27:b8:4e:39:31:2a:e6:cb:af:b1:8c:ab:ef:
                    94:4c:81:74:52:38:69:3f:fb:e0:a1:81:c4:1b:d2:
                    c0:46:2f:41:ad:3c:b5:5c:9d:9e:09:50:0b:d1:bc:
                    1f:19:8b:20:05:a2:10:44:43:77:aa:0f:ed:26:c1:
                    e3:1c:a9:bc:38:a6:d4:ce:5e:c3:4c:11:4a:69:c6:
                    4c:3d:ed:97:3e:a3:12:bc:aa:6a:67:1a:3f:8f:7b:
                    70:1a:f5:e4:f5:ec:2b:b6:18:cb:af:54:ed:5c:7a:
                    fb:97:3c:af:99:25:5c:72:2b:7d:41:9e:5e:eb:0e:
                    90:f7:ad:01:f3:54:76:4d:01:46:fe:50:30:3a:c7:
                    87:be:cb:6c:35:32:ff:11:14:0f:f9:16:fd:9a:a5:
                    00:a5:82:65:73:47:46:38:77:86:db:15:d2:86:eb:
                    89:8b
                Exponent: 65537 (0x10001)
        X509v3 extensions:
            X509v3 Basic Constraints: 
                CA:FALSE
            Netscape Cert Type: 
                SSL Server
            Netscape Comment: 
                Praisenet Certificate
            X509v3 Subject Key Identifier: 
                A8:CF:EE:26:82:60:59:23:AC:BB:3C:CA:F1:0F:36:9D:67:BB:47:F2
            X509v3 Authority Key Identifier: 
                keyid:13:AF:DF:D1:C4:8D:75:A0:11:2B:BB:A3:9F:F1:36:AB:E6:E0:01:D6
                DirName:/C=IT/ST=Italia/L=Grosseto/O=Praisenet/OU=Praisenet Paranoia/CN=praisenet.darktech.org/emailAddress=postmaster@praisenet.darktech.org
                serial:A4:6D:8E:90:75:D3:9D:BC

    Signature Algorithm: sha1WithRSAEncryption
         89:78:10:9d:db:5c:42:08:00:71:ca:5d:3a:dd:a5:07:2e:b1:
         25:b4:90:cb:3c:c6:28:19:29:18:0b:4c:ea:1c:63:aa:f1:29:
         80:61:75:20:ab:b2:aa:d1:f7:da:7e:49:5c:09:8d:fc:b1:e1:
         b0:8d:6f:a5:09:25:8d:50:09:6d:c2:25:bd:14:fe:63:94:cb:
         b8:c7:35:aa:96:70:89:ea:af:8b:57:aa:f9:81:d1:14:8c:ba:
         0f:83:04:09:a0:fc:53:31:9b:46:ae:e8:b4:c1:69:c8:d3:31:
         fd:83:db:94:82:44:12:64:9d:cb:0e:3d:ca:ae:6d:e7:05:03:
         91:c5:b0:6a:74:c7:2f:a7:97:82:06:9d:58:66:4e:c3:50:75:
         68:f2:e2:45:f5:a1:06:b9:e0:eb:17:46:68:6d:74:1b:7a:40:
         47:24:48:18:2f:11:27:8a:a2:49:d3:7c:61:d1:e7:a3:e5:ec:
         d9:27:77:68:29:a2:91:bd:65:19:34:fd:00:23:b2:55:08:ec:
         ed:2c:96:25:a4:98:7c:40:70:60:fa:6e:50:62:29:61:ec:6c:
         86:ba:a3:8e:8c:28:58:07:31:ca:b9:49:50:c3:ac:2c:bc:6f:
         42:dd:a7:8c:47:d2:a2:ec:eb:63:09:3c:1a:fd:7c:32:7e:4f:
         08:6c:6c:8f
-----BEGIN CERTIFICATE-----
MIIFODCCBCCgAwIBAgIBODANBgkqhkiG9w0BAQUFADCBtTELMAkGA1UEBhMCSVQx
DzANBgNVBAgTBkl0YWxpYTERMA8GA1UEBxMIR3Jvc3NldG8xEjAQBgNVBAoTCVBy
YWlzZW5ldDEbMBkGA1UECxMSUHJhaXNlbmV0IFBhcmFub2lhMR8wHQYDVQQDExZw
cmFpc2VuZXQuZGFya3RlY2gub3JnMTAwLgYJKoZIhvcNAQkBFiFwb3N0bWFzdGVy
QHByYWlzZW5ldC5kYXJrdGVjaC5vcmcwHhcNMTYwMjIyMTM0MTM0WhcNMTcwMjIx
MTM0MTM0WjCBsDELMAkGA1UEBhMCSVQxDzANBgNVBAgTBkl0YWxpYTERMA8GA1UE
BxMIR3Jvc3NldG8xEjAQBgNVBAoTCVByYWlzZW5ldDEbMBkGA1UECxMSUHJhaXNl
bmV0IFBhcmFub2lhMRowGAYDVQQDExFlcnJvcnMudGN5bm55LmNvbTEwMC4GCSqG
SIb3DQEJARYhcG9zdG1hc3RlckBwcmFpc2VuZXQuZGFya3RlY2gub3JnMIIBIjAN
BgkqhkiG9w0BAQEFAAOCAQ8AMIIBCgKCAQEApMAQtTku9lmz5aRNo9a/CekDyzkS
8et5EF2q8eQTLH/+1ac+oHdg9Xtlgt3951SacCOyVcoyQNEemlEMDS5+UExqSump
kjg8XyVdZf+OJ7gH+aKLF3fEA5dvUSe4TjkxKubLr7GMq++UTIF0UjhpP/vgoYHE
G9LARi9BrTy1XJ2eCVAL0bwfGYsgBaIQREN3qg/tJsHjHKm8OKbUzl7DTBFKacZM
Pe2XPqMSvKpqZxo/j3twGvXk9ewrthjLr1TtXHr7lzyvmSVccit9QZ5e6w6Q960B
81R2TQFG/lAwOseHvstsNTL/ERQP+Rb9mqUApYJlc0dGOHeG2xXShuuJiwIDAQAB
o4IBVDCCAVAwCQYDVR0TBAIwADARBglghkgBhvhCAQEEBAMCBkAwJAYJYIZIAYb4
QgENBBcWFVByYWlzZW5ldCBDZXJ0aWZpY2F0ZTAdBgNVHQ4EFgQUqM/uJoJgWSOs
uzzK8Q82nWe7R/IwgeoGA1UdIwSB4jCB34AUE6/f0cSNdaARK7ujn/E2q+bgAdah
gbukgbgwgbUxCzAJBgNVBAYTAklUMQ8wDQYDVQQIEwZJdGFsaWExETAPBgNVBAcT
CEdyb3NzZXRvMRIwEAYDVQQKEwlQcmFpc2VuZXQxGzAZBgNVBAsTElByYWlzZW5l
dCBQYXJhbm9pYTEfMB0GA1UEAxMWcHJhaXNlbmV0LmRhcmt0ZWNoLm9yZzEwMC4G
CSqGSIb3DQEJARYhcG9zdG1hc3RlckBwcmFpc2VuZXQuZGFya3RlY2gub3JnggkA
pG2OkHXTnbwwDQYJKoZIhvcNAQEFBQADggEBAIl4EJ3bXEIIAHHKXTrdpQcusSW0
kMs8xigZKRgLTOocY6rxKYBhdSCrsqrR99p+SVwJjfyx4bCNb6UJJY1QCW3CJb0U
/mOUy7jHNaqWcInqr4tXqvmB0RSMug+DBAmg/FMxm0au6LTBacjTMf2D25SCRBJk
ncsOPcqubecFA5HFsGp0xy+nl4IGnVhmTsNQdWjy4kX1oQa54OsXRmhtdBt6QEck
SBgvESeKoknTfGHR56Pl7Nknd2gpopG9ZRk0/QAjslUI7O0sliWkmHxAcGD6blBi
KWHsbIa6o46MKFgHMcq5SVDDrCy8b0Ldp4xH0qLs62MJPBr9fDJ+TwhsbI8=
-----END CERTIFICATE-----
