Certificate:
    Data:
        Version: 3 (0x2)
        Serial Number: 68 (0x44)
    Signature Algorithm: sha256WithRSAEncryption
        Issuer: C=IT, ST=Italia, L=Grosseto, O=Praisenet, OU=Praisenet Paranoia, CN=praisenet.darktech.org/emailAddress=postmaster@praisenet.darktech.org
        Validity
            Not Before: Aug 10 11:22:28 2016 GMT
            Not After : Aug 10 11:22:28 2017 GMT
        Subject: C=IT, ST=Italia, L=Grosseto, O=Praisenet, OU=Praisenet Paranoia, CN=stats.prova/emailAddress=postmaster@prova.it
        Subject Public Key Info:
            Public Key Algorithm: rsaEncryption
                Public-Key: (2048 bit)
                Modulus:
                    00:b3:4d:79:06:b7:ff:b2:87:9b:56:ed:2e:a2:2d:
                    1a:4c:ba:4e:3c:c3:22:24:f1:b0:d9:8d:f8:f6:8f:
                    f2:5b:29:aa:ed:27:06:1f:d6:e4:68:ff:70:47:d3:
                    1e:45:8b:72:7e:1c:b1:86:f5:94:47:86:1a:2b:19:
                    78:a5:79:2e:94:21:f5:86:fe:c9:68:66:b8:46:62:
                    09:14:64:5a:85:c4:ca:89:80:cc:05:e7:1b:ce:fc:
                    6b:55:72:68:ea:d0:44:43:42:b1:fb:11:c2:9d:46:
                    33:ff:2e:3b:9c:86:d3:c5:b8:a3:14:78:3f:a8:b8:
                    0b:49:a7:db:5c:1f:75:0a:6f:a4:8a:e7:61:14:e0:
                    32:05:af:8e:8c:49:77:a7:c0:32:ed:1a:d4:56:5c:
                    1b:83:7c:be:01:2f:d5:75:0f:46:90:90:cf:82:8f:
                    41:2e:dc:b4:6b:25:bf:db:8b:b4:1e:ee:b7:c2:0f:
                    b2:63:66:88:46:67:11:d9:ad:c4:c4:6b:9c:b6:05:
                    d9:87:2f:0b:83:0a:bb:20:8e:c7:6c:93:2f:5c:86:
                    f1:98:46:95:3b:6e:55:c9:66:6d:d1:be:0b:fe:87:
                    5c:a0:80:1a:04:b6:52:bb:12:ef:8a:da:28:80:16:
                    4a:65:40:00:a5:b8:ef:50:ec:a7:e8:11:50:a0:00:
                    dd:1d
                Exponent: 65537 (0x10001)
        X509v3 extensions:
            X509v3 Basic Constraints: 
                CA:FALSE
            Netscape Cert Type: 
                SSL Client
            Netscape Comment: 
                Praisenet Certificate
            X509v3 Subject Key Identifier: 
                59:73:6D:16:47:97:66:F8:92:BF:5B:E5:B1:59:30:5F:F8:DA:67:06
            X509v3 Authority Key Identifier: 
                keyid:13:AF:DF:D1:C4:8D:75:A0:11:2B:BB:A3:9F:F1:36:AB:E6:E0:01:D6
                DirName:/C=IT/ST=Italia/L=Grosseto/O=Praisenet/OU=Praisenet Paranoia/CN=praisenet.darktech.org/emailAddress=postmaster@praisenet.darktech.org
                serial:A4:6D:8E:90:75:D3:9D:BC

    Signature Algorithm: sha256WithRSAEncryption
         07:cb:f9:c3:0e:d5:36:42:4b:82:13:d1:a2:2c:7b:96:ff:4f:
         09:30:89:ba:58:c5:ef:cb:6a:6f:f7:2e:a6:9d:80:e4:a4:55:
         88:77:a3:2a:79:11:40:35:fa:aa:67:ed:42:b0:ac:19:82:55:
         6b:75:fa:af:11:b2:7d:ba:b4:4a:5d:5b:90:05:51:3d:7c:31:
         d6:e7:a4:4c:cf:68:5f:85:4f:00:d2:9a:62:9a:e7:3a:cb:4a:
         0e:72:40:aa:2b:08:10:55:81:f5:4b:0b:93:83:61:e9:49:df:
         a0:36:81:bf:2f:f1:73:d9:f3:d3:c9:ae:ea:7a:5e:92:a2:ec:
         ab:c4:ed:68:d2:77:83:9c:b3:71:c5:9f:73:4e:5a:91:ca:fc:
         b8:a3:dc:2d:4f:9e:80:dc:58:9a:76:36:26:56:97:19:81:9f:
         c4:67:44:89:b2:1d:bc:2b:62:f8:09:6f:98:e7:93:43:e8:2d:
         ec:a6:c6:43:ae:b7:1b:74:b4:99:b7:ad:ea:cc:02:b3:bb:e6:
         d8:f2:da:a8:6a:78:f3:e2:04:20:b2:07:41:67:27:ff:eb:f7:
         b9:15:c0:a5:76:e5:be:83:33:09:e1:0f:a6:45:e1:c3:59:d8:
         54:12:4f:05:c7:57:10:f3:c3:10:2a:90:a0:5c:2a:cf:90:d0:
         b6:28:4c:b7
-----BEGIN CERTIFICATE-----
MIIFJDCCBAygAwIBAgIBRDANBgkqhkiG9w0BAQsFADCBtTELMAkGA1UEBhMCSVQx
DzANBgNVBAgTBkl0YWxpYTERMA8GA1UEBxMIR3Jvc3NldG8xEjAQBgNVBAoTCVBy
YWlzZW5ldDEbMBkGA1UECxMSUHJhaXNlbmV0IFBhcmFub2lhMR8wHQYDVQQDExZw
cmFpc2VuZXQuZGFya3RlY2gub3JnMTAwLgYJKoZIhvcNAQkBFiFwb3N0bWFzdGVy
QHByYWlzZW5ldC5kYXJrdGVjaC5vcmcwHhcNMTYwODEwMTEyMjI4WhcNMTcwODEw
MTEyMjI4WjCBnDELMAkGA1UEBhMCSVQxDzANBgNVBAgTBkl0YWxpYTERMA8GA1UE
BxMIR3Jvc3NldG8xEjAQBgNVBAoTCVByYWlzZW5ldDEbMBkGA1UECxMSUHJhaXNl
bmV0IFBhcmFub2lhMRQwEgYDVQQDEwtzdGF0cy5wcm92YTEiMCAGCSqGSIb3DQEJ
ARYTcG9zdG1hc3RlckBwcm92YS5pdDCCASIwDQYJKoZIhvcNAQEBBQADggEPADCC
AQoCggEBALNNeQa3/7KHm1btLqItGky6TjzDIiTxsNmN+PaP8lspqu0nBh/W5Gj/
cEfTHkWLcn4csYb1lEeGGisZeKV5LpQh9Yb+yWhmuEZiCRRkWoXEyomAzAXnG878
a1VyaOrQRENCsfsRwp1GM/8uO5yG08W4oxR4P6i4C0mn21wfdQpvpIrnYRTgMgWv
joxJd6fAMu0a1FZcG4N8vgEv1XUPRpCQz4KPQS7ctGslv9uLtB7ut8IPsmNmiEZn
EdmtxMRrnLYF2YcvC4MKuyCOx2yTL1yG8ZhGlTtuVclmbdG+C/6HXKCAGgS2UrsS
74raKIAWSmVAAKW471Dsp+gRUKAA3R0CAwEAAaOCAVQwggFQMAkGA1UdEwQCMAAw
EQYJYIZIAYb4QgEBBAQDAgeAMCQGCWCGSAGG+EIBDQQXFhVQcmFpc2VuZXQgQ2Vy
dGlmaWNhdGUwHQYDVR0OBBYEFFlzbRZHl2b4kr9b5bFZMF/42mcGMIHqBgNVHSME
geIwgd+AFBOv39HEjXWgESu7o5/xNqvm4AHWoYG7pIG4MIG1MQswCQYDVQQGEwJJ
VDEPMA0GA1UECBMGSXRhbGlhMREwDwYDVQQHEwhHcm9zc2V0bzESMBAGA1UEChMJ
UHJhaXNlbmV0MRswGQYDVQQLExJQcmFpc2VuZXQgUGFyYW5vaWExHzAdBgNVBAMT
FnByYWlzZW5ldC5kYXJrdGVjaC5vcmcxMDAuBgkqhkiG9w0BCQEWIXBvc3RtYXN0
ZXJAcHJhaXNlbmV0LmRhcmt0ZWNoLm9yZ4IJAKRtjpB10528MA0GCSqGSIb3DQEB
CwUAA4IBAQAHy/nDDtU2QkuCE9GiLHuW/08JMIm6WMXvy2pv9y6mnYDkpFWId6Mq
eRFANfqqZ+1CsKwZglVrdfqvEbJ9urRKXVuQBVE9fDHW56RMz2hfhU8A0ppimuc6
y0oOckCqKwgQVYH1SwuTg2HpSd+gNoG/L/Fz2fPTya7qel6SouyrxO1o0neDnLNx
xZ9zTlqRyvy4o9wtT56A3FiadjYmVpcZgZ/EZ0SJsh28K2L4CW+Y55ND6C3spsZD
rrcbdLSZt63qzAKzu+bY8tqoanjz4gQgsgdBZyf/6/e5FcClduW+gzMJ4Q+mReHD
WdhUEk8Fx1cQ88MQKpCgXCrPkNC2KEy3
-----END CERTIFICATE-----
