Certificate:
    Data:
        Version: 3 (0x2)
        Serial Number: 53 (0x35)
    Signature Algorithm: sha1WithRSAEncryption
        Issuer: C=IT, ST=Italia, L=Grosseto, O=Praisenet, OU=Praisenet Paranoia, CN=praisenet.darktech.org/emailAddress=postmaster@praisenet.darktech.org
        Validity
            Not Before: Sep  4 10:10:30 2015 GMT
            Not After : Sep  3 10:10:30 2016 GMT
        Subject: C=IT, ST=Italia, L=Grosseto, O=Praisenet, OU=Praisenet Paranoia, CN=sys.prova/emailAddress=postmaster@praisenet.darktech.org
        Subject Public Key Info:
            Public Key Algorithm: rsaEncryption
                Public-Key: (2048 bit)
                Modulus:
                    00:b6:5f:e3:ba:2d:05:33:74:e7:08:bf:ae:b1:59:
                    30:67:f2:59:f6:d9:55:c8:02:bc:9a:bc:0f:fb:69:
                    82:29:40:b9:9d:63:5a:dc:2f:a9:ac:7b:74:37:60:
                    85:fa:03:3e:2b:f9:67:47:61:75:48:0f:d9:0f:6d:
                    38:2a:bc:a4:dd:c4:2f:68:3f:fc:40:1b:e6:b0:e9:
                    61:bb:b8:0b:b9:20:bc:af:dd:5b:f8:98:a7:af:73:
                    28:5a:f3:c0:49:ef:d1:7d:7c:2a:90:2c:e5:1b:4e:
                    14:95:0b:c9:c4:af:ce:19:25:9b:24:39:06:ef:aa:
                    e6:1e:06:46:99:5d:ab:c3:5c:a3:d2:66:87:08:76:
                    44:fd:05:76:1b:96:3e:4d:ff:f8:5a:b2:9e:2b:d1:
                    55:43:c0:59:60:98:03:ef:d2:8c:ac:c8:e8:3f:56:
                    88:82:d1:8b:17:bc:86:61:42:56:d2:65:13:58:77:
                    c3:f8:42:8e:f4:e2:56:9f:74:aa:c6:56:a1:92:f5:
                    ed:05:02:5c:b6:f3:4d:f4:3f:1f:e4:9f:aa:6f:bf:
                    1c:0b:e8:0f:c5:f7:50:2f:4b:25:25:4c:46:2b:0f:
                    81:4d:6a:63:71:2f:7a:42:a4:e8:34:28:f7:d3:15:
                    1e:2a:39:7f:88:76:08:b3:f6:36:6f:df:39:8a:c0:
                    5a:2d
                Exponent: 65537 (0x10001)
        X509v3 extensions:
            X509v3 Basic Constraints: 
                CA:FALSE
            Netscape Cert Type: 
                SSL Server
            Netscape Comment: 
                Praisenet Certificate
            X509v3 Subject Key Identifier: 
                70:04:A6:B4:85:81:20:81:E5:8E:B7:7F:FF:36:F1:2D:3D:5E:2B:83
            X509v3 Authority Key Identifier: 
                keyid:13:AF:DF:D1:C4:8D:75:A0:11:2B:BB:A3:9F:F1:36:AB:E6:E0:01:D6
                DirName:/C=IT/ST=Italia/L=Grosseto/O=Praisenet/OU=Praisenet Paranoia/CN=praisenet.darktech.org/emailAddress=postmaster@praisenet.darktech.org
                serial:A4:6D:8E:90:75:D3:9D:BC

    Signature Algorithm: sha1WithRSAEncryption
         5b:72:ea:37:3c:64:4f:aa:6c:97:47:e8:58:ec:84:5d:2f:1f:
         4a:05:5d:b5:c6:13:61:3f:9b:16:00:31:da:47:04:1a:ed:20:
         10:92:7f:8e:a3:34:9a:3c:35:f5:40:3b:b8:18:4b:89:2c:06:
         af:c0:c1:49:ba:f8:8b:89:2d:af:6e:3c:64:ed:30:86:26:65:
         d5:36:07:3c:34:c5:3c:69:92:50:87:1c:a0:e7:d5:1f:78:dc:
         c2:d5:8e:bb:ab:41:5b:09:be:7b:93:45:c5:fc:44:e0:5a:76:
         50:36:8c:76:44:11:46:d0:ce:28:38:ab:66:b2:3c:10:24:bc:
         4c:ab:39:00:e6:9f:d1:df:ed:6e:08:81:1b:ec:7d:65:c5:b2:
         87:d3:cc:ab:5c:f3:2e:1d:7a:6a:8f:64:c0:8f:ce:08:79:c4:
         dc:06:e2:b7:28:9a:e6:1d:ed:a5:ab:7f:6e:b3:da:da:ae:95:
         25:28:4d:86:84:0f:ee:a7:89:b2:1b:44:d1:da:1b:91:42:69:
         60:a2:6c:a5:a6:64:cf:98:3c:37:2b:84:fa:ad:80:c4:23:f7:
         29:8c:0a:c4:d6:23:cd:1e:47:80:4a:e4:e2:64:7e:59:65:37:
         9d:d7:80:d5:e3:82:29:8d:4b:e7:ff:07:5b:a5:ad:d0:2f:b1:
         7b:aa:d9:bd
-----BEGIN CERTIFICATE-----
MIIFMDCCBBigAwIBAgIBNTANBgkqhkiG9w0BAQUFADCBtTELMAkGA1UEBhMCSVQx
DzANBgNVBAgTBkl0YWxpYTERMA8GA1UEBxMIR3Jvc3NldG8xEjAQBgNVBAoTCVBy
YWlzZW5ldDEbMBkGA1UECxMSUHJhaXNlbmV0IFBhcmFub2lhMR8wHQYDVQQDExZw
cmFpc2VuZXQuZGFya3RlY2gub3JnMTAwLgYJKoZIhvcNAQkBFiFwb3N0bWFzdGVy
QHByYWlzZW5ldC5kYXJrdGVjaC5vcmcwHhcNMTUwOTA0MTAxMDMwWhcNMTYwOTAz
MTAxMDMwWjCBqDELMAkGA1UEBhMCSVQxDzANBgNVBAgTBkl0YWxpYTERMA8GA1UE
BxMIR3Jvc3NldG8xEjAQBgNVBAoTCVByYWlzZW5ldDEbMBkGA1UECxMSUHJhaXNl
bmV0IFBhcmFub2lhMRIwEAYDVQQDEwlzeXMucHJvdmExMDAuBgkqhkiG9w0BCQEW
IXBvc3RtYXN0ZXJAcHJhaXNlbmV0LmRhcmt0ZWNoLm9yZzCCASIwDQYJKoZIhvcN
AQEBBQADggEPADCCAQoCggEBALZf47otBTN05wi/rrFZMGfyWfbZVcgCvJq8D/tp
gilAuZ1jWtwvqax7dDdghfoDPiv5Z0dhdUgP2Q9tOCq8pN3EL2g//EAb5rDpYbu4
C7kgvK/dW/iYp69zKFrzwEnv0X18KpAs5RtOFJULycSvzhklmyQ5Bu+q5h4GRpld
q8Nco9Jmhwh2RP0FdhuWPk3/+FqynivRVUPAWWCYA+/SjKzI6D9WiILRixe8hmFC
VtJlE1h3w/hCjvTiVp90qsZWoZL17QUCXLbzTfQ/H+Sfqm+/HAvoD8X3UC9LJSVM
RisPgU1qY3EvekKk6DQo99MVHio5f4h2CLP2Nm/fOYrAWi0CAwEAAaOCAVQwggFQ
MAkGA1UdEwQCMAAwEQYJYIZIAYb4QgEBBAQDAgZAMCQGCWCGSAGG+EIBDQQXFhVQ
cmFpc2VuZXQgQ2VydGlmaWNhdGUwHQYDVR0OBBYEFHAEprSFgSCB5Y63f/828S09
XiuDMIHqBgNVHSMEgeIwgd+AFBOv39HEjXWgESu7o5/xNqvm4AHWoYG7pIG4MIG1
MQswCQYDVQQGEwJJVDEPMA0GA1UECBMGSXRhbGlhMREwDwYDVQQHEwhHcm9zc2V0
bzESMBAGA1UEChMJUHJhaXNlbmV0MRswGQYDVQQLExJQcmFpc2VuZXQgUGFyYW5v
aWExHzAdBgNVBAMTFnByYWlzZW5ldC5kYXJrdGVjaC5vcmcxMDAuBgkqhkiG9w0B
CQEWIXBvc3RtYXN0ZXJAcHJhaXNlbmV0LmRhcmt0ZWNoLm9yZ4IJAKRtjpB10528
MA0GCSqGSIb3DQEBBQUAA4IBAQBbcuo3PGRPqmyXR+hY7IRdLx9KBV21xhNhP5sW
ADHaRwQa7SAQkn+OozSaPDX1QDu4GEuJLAavwMFJuviLiS2vbjxk7TCGJmXVNgc8
NMU8aZJQhxyg59UfeNzC1Y67q0FbCb57k0XF/ETgWnZQNox2RBFG0M4oOKtmsjwQ
JLxMqzkA5p/R3+1uCIEb7H1lxbKH08yrXPMuHXpqj2TAj84IecTcBuK3KJrmHe2l
q39us9rarpUlKE2GhA/up4myG0TR2huRQmlgomylpmTPmDw3K4T6rYDEI/cpjArE
1iPNHkeASuTiZH5ZZTed14DV44IpjUvn/wdbpa3QL7F7qtm9
-----END CERTIFICATE-----
